; Function Attrs: mustprogress nofree nounwind willreturn memory(read, inaccessiblemem: none) uwtable
define internal i32 @SortFnByName(ptr noundef readonly captures(none) %0, ptr noundef readonly captures(none) %1) #11 {
  %3 = load i32, ptr %0, align 8, !tbaa !20
  %4 = load i32, ptr %1, align 8, !tbaa !20
  %.not = icmp eq i32 %3, %4
  br i1 %.not, label %7, label %5

5:                                                ; preds = %2
  %6 = sub i32 %3, %4
  br label %13

7:                                                ; preds = %2
  %8 = getelementptr inbounds nuw i8, ptr %0, i64 8
  %9 = load ptr, ptr %8, align 8, !tbaa !11
  %10 = getelementptr inbounds nuw i8, ptr %1, i64 8
  %11 = load ptr, ptr %10, align 8, !tbaa !11
  %12 = tail call i32 @strcmp(ptr noundef nonnull dereferenceable(1) %9, ptr noundef nonnull dereferenceable(1) %11) #13
  br label %13

13:                                               ; preds = %7, %5
  %.0 = phi i32 [ %6, %5 ], [ %12, %7 ]
  ret i32 %.0
}